target datalayout = "e-m:e-p270:32:32-p271:32:32-p272:64:64-i64:64-i128:128-f80:128-n8:16:32:64-S128"
target triple = "x86_64-pc-linux-gnu"

@.str.4 = private unnamed_addr constant [2 x i8] c"\0A\00", align 1
@.str.5 = private unnamed_addr constant [37 x i8] c"    clockgate [options] [selection]\0A\00", align 1
@.str.6 = private unnamed_addr constant [65 x i8] c"This pass transforms each set of FFs sharing the same clock and\0A\00", align 1
@.str.7 = private unnamed_addr constant [70 x i8] c"enable signal into a clock-gating cell and a set of enable-less FFs.\0A\00", align 1
@.str.8 = private unnamed_addr constant [58 x i8] c"Primarily a power-saving transformation on ASIC designs.\0A\00", align 1
@.str.9 = private unnamed_addr constant [39 x i8] c"    -pos <celltype> <ce>:<clk>:<gclk>\0A\00", align 1
@.str.10 = private unnamed_addr constant [59 x i8] c"        If specified, rising-edge FFs will have CE inputs\0A\00", align 1
@.str.11 = private unnamed_addr constant [58 x i8] c"        removed and a gated clock will be created by the\0A\00", align 1
@.str.12 = private unnamed_addr constant [65 x i8] c"        user-specified <celltype> ICG (integrated clock gating)\0A\00", align 1
@.str.13 = private unnamed_addr constant [52 x i8] c"        cell with ports named <ce>, <clk>, <gclk>.\0A\00", align 1
@.str.14 = private unnamed_addr constant [57 x i8] c"        The ICG's clock enable pin must be active high.\0A\00", align 1
@.str.15 = private unnamed_addr constant [39 x i8] c"    -neg <celltype> <ce>:<clk>:<gclk>\0A\00", align 1
@.str.16 = private unnamed_addr constant [60 x i8] c"        If specified, falling-edge FFs will have CE inputs\0A\00", align 1
@.str.17 = private unnamed_addr constant [25 x i8] c"    -liberty <filename>\0A\00", align 1
@.str.18 = private unnamed_addr constant [68 x i8] c"        If specified, ICGs will be selected from the liberty files\0A\00", align 1
@.str.19 = private unnamed_addr constant [68 x i8] c"        if available. Priority is given to cells with fewer tie_lo\0A\00", align 1
@.str.20 = private unnamed_addr constant [68 x i8] c"        inputs and smaller size. This removes the need to manually\0A\00", align 1
@.str.21 = private unnamed_addr constant [43 x i8] c"        specify -pos or -neg and -tie_lo.\0A\00", align 1
@.str.22 = private unnamed_addr constant [26 x i8] c"    -dont_use <celltype>\0A\00", align 1
@.str.23 = private unnamed_addr constant [70 x i8] c"        Cells <celltype> won't be considered when searching for ICGs\0A\00", align 1
@.str.24 = private unnamed_addr constant [52 x i8] c"        in the liberty file specified by -liberty.\0A\00", align 1
@.str.25 = private unnamed_addr constant [25 x i8] c"    -tie_lo <port_name>\0A\00", align 1
@.str.26 = private unnamed_addr constant [59 x i8] c"        Port <port_name> of the ICG will be tied to zero.\0A\00", align 1
@.str.27 = private unnamed_addr constant [44 x i8] c"        Intended for DFT scan-enable pins.\0A\00", align 1
@.str.28 = private unnamed_addr constant [23 x i8] c"    -min_net_size <n>\0A\00", align 1
@.str.29 = private unnamed_addr constant [59 x i8] c"        Only transform sets of at least <n> eligible FFs.\0A\00", align 1
@.str.30 = private unnamed_addr constant [10 x i8] c"        \0A\00", align 1

; Function Attrs: mustprogress uwtable
define internal void @_ZN12_GLOBAL__N_113ClockgatePass4helpEv(ptr noundef nonnull align 8 dereferenceable(104) %0) unnamed_addr #4 align 2 {
  %2 = alloca ptr, align 8
  store ptr %0, ptr %2, align 8, !tbaa !6
  call void (ptr, ...) @_ZN5Yosys3logEPKcz(ptr noundef @.str.4)
  call void (ptr, ...) @_ZN5Yosys3logEPKcz(ptr noundef @.str.5)
  call void (ptr, ...) @_ZN5Yosys3logEPKcz(ptr noundef @.str.4)
  call void (ptr, ...) @_ZN5Yosys3logEPKcz(ptr noundef @.str.6)
  call void (ptr, ...) @_ZN5Yosys3logEPKcz(ptr noundef @.str.7)
  call void (ptr, ...) @_ZN5Yosys3logEPKcz(ptr noundef @.str.8)
  call void (ptr, ...) @_ZN5Yosys3logEPKcz(ptr noundef @.str.4)
  call void (ptr, ...) @_ZN5Yosys3logEPKcz(ptr noundef @.str.9)
  call void (ptr, ...) @_ZN5Yosys3logEPKcz(ptr noundef @.str.10)
  call void (ptr, ...) @_ZN5Yosys3logEPKcz(ptr noundef @.str.11)
  call void (ptr, ...) @_ZN5Yosys3logEPKcz(ptr noundef @.str.12)
  call void (ptr, ...) @_ZN5Yosys3logEPKcz(ptr noundef @.str.13)
  call void (ptr, ...) @_ZN5Yosys3logEPKcz(ptr noundef @.str.14)
  call void (ptr, ...) @_ZN5Yosys3logEPKcz(ptr noundef @.str.15)
  call void (ptr, ...) @_ZN5Yosys3logEPKcz(ptr noundef @.str.16)
  call void (ptr, ...) @_ZN5Yosys3logEPKcz(ptr noundef @.str.11)
  call void (ptr, ...) @_ZN5Yosys3logEPKcz(ptr noundef @.str.12)
  call void (ptr, ...) @_ZN5Yosys3logEPKcz(ptr noundef @.str.13)
  call void (ptr, ...) @_ZN5Yosys3logEPKcz(ptr noundef @.str.14)
  call void (ptr, ...) @_ZN5Yosys3logEPKcz(ptr noundef @.str.17)
  call void (ptr, ...) @_ZN5Yosys3logEPKcz(ptr noundef @.str.18)
  call void (ptr, ...) @_ZN5Yosys3logEPKcz(ptr noundef @.str.19)
  call void (ptr, ...) @_ZN5Yosys3logEPKcz(ptr noundef @.str.20)
  call void (ptr, ...) @_ZN5Yosys3logEPKcz(ptr noundef @.str.21)
  call void (ptr, ...) @_ZN5Yosys3logEPKcz(ptr noundef @.str.22)
  call void (ptr, ...) @_ZN5Yosys3logEPKcz(ptr noundef @.str.23)
  call void (ptr, ...) @_ZN5Yosys3logEPKcz(ptr noundef @.str.24)
  call void (ptr, ...) @_ZN5Yosys3logEPKcz(ptr noundef @.str.25)
  call void (ptr, ...) @_ZN5Yosys3logEPKcz(ptr noundef @.str.26)
  call void (ptr, ...) @_ZN5Yosys3logEPKcz(ptr noundef @.str.27)
  call void (ptr, ...) @_ZN5Yosys3logEPKcz(ptr noundef @.str.28)
  call void (ptr, ...) @_ZN5Yosys3logEPKcz(ptr noundef @.str.29)
  call void (ptr, ...) @_ZN5Yosys3logEPKcz(ptr noundef @.str.30)
  ret void
}